CCS PCM C Compiler, Version 5.109, 43599               25-Dec-25 12:36

               Filename:   D:\DA2\test1.lst

               ROM used:   886 words (11%)
                           Largest free fragment is 2048
               RAM used:   35 (10%) at main() level
                           46 (12%) worst case
               Stack used: 3 locations (1 in main + 2 for interrupts)
               Stack size: 8

*
0000:  MOVLW  02
0001:  MOVWF  0A
0002:  GOTO   2C3
0003:  NOP
0004:  MOVWF  7F
0005:  SWAPF  03,W
0006:  CLRF   03
0007:  MOVWF  21
0008:  MOVF   0A,W
0009:  MOVWF  20
000A:  CLRF   0A
000B:  MOVF   04,W
000C:  MOVWF  22
000D:  MOVF   77,W
000E:  MOVWF  23
000F:  MOVF   78,W
0010:  MOVWF  24
0011:  MOVF   79,W
0012:  MOVWF  25
0013:  MOVF   7A,W
0014:  MOVWF  26
0015:  BCF    03.7
0016:  BCF    03.5
0017:  MOVLW  8C
0018:  MOVWF  04
0019:  BTFSS  00.0
001A:  GOTO   01D
001B:  BTFSC  0C.0
001C:  GOTO   02E
001D:  MOVF   22,W
001E:  MOVWF  04
001F:  MOVF   23,W
0020:  MOVWF  77
0021:  MOVF   24,W
0022:  MOVWF  78
0023:  MOVF   25,W
0024:  MOVWF  79
0025:  MOVF   26,W
0026:  MOVWF  7A
0027:  MOVF   20,W
0028:  MOVWF  0A
0029:  SWAPF  21,W
002A:  MOVWF  03
002B:  SWAPF  7F,F
002C:  SWAPF  7F,W
002D:  RETFIE
002E:  BCF    0A.3
002F:  BCF    0A.4
0030:  GOTO   046
.................... #include <16f877a.h>
.................... //////////// Standard Header file for the PIC16F877A device ////////////////
.................... ///////////////////////////////////////////////////////////////////////////
.................... ////        (C) Copyright 1996, 2020 Custom Computer Services          ////
.................... //// This source code may only be used by licensed users of the CCS C  ////
.................... //// compiler.  This source code may only be distributed to other      ////
.................... //// licensed users of the CCS C compiler.  No other use, reproduction ////
.................... //// or distribution is permitted without written permission.          ////
.................... //// Derivative programs created using this software in object code    ////
.................... //// form are not restricted in any way.                               ////
.................... ///////////////////////////////////////////////////////////////////////////
.................... #device PIC16F877A
0031:  MOVF   45,W
0032:  CLRF   78
0033:  SUBWF  44,W
0034:  BTFSC  03.0
0035:  GOTO   039
0036:  MOVF   44,W
0037:  MOVWF  77
0038:  GOTO   045
0039:  CLRF   77
003A:  MOVLW  08
003B:  MOVWF  46
003C:  RLF    44,F
003D:  RLF    77,F
003E:  MOVF   45,W
003F:  SUBWF  77,W
0040:  BTFSC  03.0
0041:  MOVWF  77
0042:  RLF    78,F
0043:  DECFSZ 46,F
0044:  GOTO   03C
0045:  RETURN
*
00C7:  CLRF   78
00C8:  CLRF   79
00C9:  CLRF   77
00CA:  CLRF   7A
00CB:  MOVF   47,W
00CC:  BTFSS  03.2
00CD:  GOTO   0D1
00CE:  MOVF   46,W
00CF:  BTFSC  03.2
00D0:  GOTO   0EB
00D1:  MOVLW  10
00D2:  MOVWF  48
00D3:  BCF    03.0
00D4:  RLF    44,F
00D5:  RLF    45,F
00D6:  RLF    77,F
00D7:  RLF    7A,F
00D8:  MOVF   47,W
00D9:  SUBWF  7A,W
00DA:  BTFSS  03.2
00DB:  GOTO   0DE
00DC:  MOVF   46,W
00DD:  SUBWF  77,W
00DE:  BTFSS  03.0
00DF:  GOTO   0E7
00E0:  MOVF   46,W
00E1:  SUBWF  77,F
00E2:  BTFSS  03.0
00E3:  DECF   7A,F
00E4:  MOVF   47,W
00E5:  SUBWF  7A,F
00E6:  BSF    03.0
00E7:  RLF    78,F
00E8:  RLF    79,F
00E9:  DECFSZ 48,F
00EA:  GOTO   0D3
*
01AA:  BSF    0A.0
01AB:  BCF    0A.1
01AC:  BCF    0A.2
01AD:  ADDWF  02,F
01AE:  GOTO   065
01AF:  GOTO   07A
01B0:  GOTO   08F
01B1:  GOTO   0A4
*
025C:  CLRF   77
025D:  CLRF   78
025E:  MOVF   42,W
025F:  BCF    03.0
0260:  BTFSC  43.0
0261:  ADDWF  77,F
0262:  RRF    77,F
0263:  RRF    78,F
0264:  BTFSC  43.1
0265:  ADDWF  77,F
0266:  RRF    77,F
0267:  RRF    78,F
0268:  BTFSC  43.2
0269:  ADDWF  77,F
026A:  RRF    77,F
026B:  RRF    78,F
026C:  BTFSC  43.3
026D:  ADDWF  77,F
026E:  RRF    77,F
026F:  RRF    78,F
0270:  BTFSC  43.4
0271:  ADDWF  77,F
0272:  RRF    77,F
0273:  RRF    78,F
0274:  BTFSC  43.5
0275:  ADDWF  77,F
0276:  RRF    77,F
0277:  RRF    78,F
0278:  BTFSC  43.6
0279:  ADDWF  77,F
027A:  RRF    77,F
027B:  RRF    78,F
027C:  BTFSC  43.7
027D:  ADDWF  77,F
027E:  RRF    77,F
027F:  RRF    78,F
.................... 
.................... #list
.................... 
.................... #use delay(crystal=20000000)
*
01B2:  MOVLW  3E
01B3:  MOVWF  04
01B4:  BCF    03.7
01B5:  MOVF   00,W
01B6:  BTFSC  03.2
01B7:  GOTO   1C5
01B8:  MOVLW  06
01B9:  MOVWF  78
01BA:  CLRF   77
01BB:  DECFSZ 77,F
01BC:  GOTO   1BB
01BD:  DECFSZ 78,F
01BE:  GOTO   1BA
01BF:  MOVLW  7B
01C0:  MOVWF  77
01C1:  DECFSZ 77,F
01C2:  GOTO   1C1
01C3:  DECFSZ 00,F
01C4:  GOTO   1B8
01C5:  RETURN
.................... 
.................... // Cau hinh I2C
.................... #use i2c(Master, Fast, sda=PIN_C4, scl=PIN_C3) 
*
0232:  BCF    14.7
0233:  BCF    0C.3
0234:  MOVF   3E,W
0235:  MOVWF  13
0236:  MOVLW  02
0237:  BTFSC  14.7
0238:  GOTO   240
0239:  BSF    03.5
023A:  BTFSC  14.2
023B:  GOTO   23A
023C:  MOVLW  00
023D:  BTFSC  11.6
023E:  MOVLW  01
023F:  BCF    03.5
0240:  MOVWF  78
0241:  RETURN
0242:  BCF    14.6
0243:  BSF    03.5
0244:  BSF    11.3
0245:  BTFSC  11.3
0246:  GOTO   245
0247:  BTFSC  77.0
0248:  BCF    11.5
0249:  BTFSS  77.0
024A:  BSF    11.5
024B:  BSF    11.4
024C:  BTFSC  11.4
024D:  GOTO   24C
024E:  BCF    03.5
024F:  MOVF   13,W
0250:  MOVWF  78
0251:  RETURN
.................... 
.................... unsigned int8 code[10]={0XC0,0XF9,0XA4,0XB0,0X99,0X92,0X82,0XF8,0X80,0X90};
*
02ED:  MOVLW  C0
02EE:  BCF    03.5
02EF:  MOVWF  28
02F0:  MOVLW  F9
02F1:  MOVWF  29
02F2:  MOVLW  A4
02F3:  MOVWF  2A
02F4:  MOVLW  B0
02F5:  MOVWF  2B
02F6:  MOVLW  99
02F7:  MOVWF  2C
02F8:  MOVLW  92
02F9:  MOVWF  2D
02FA:  MOVLW  82
02FB:  MOVWF  2E
02FC:  MOVLW  F8
02FD:  MOVWF  2F
02FE:  MOVLW  80
02FF:  MOVWF  30
0300:  MOVLW  90
0301:  MOVWF  31
.................... 
.................... // DINH NGHIA THOI GIAN
.................... CONST INT8 RED=23, GREEN=20, YELLOW=3;
.................... CONST INT8 RED2=60, GREEN2=57, YELLOW2=3;
.................... 
.................... // BIEN TOAN CUC
.................... INT8 I1=0, I2=0; 
.................... UNSIGNED INT16 COUNT_TICK=0; 
.................... UNSIGNED INT8 mode=0; 
.................... UNSIGNED INT8 COUNTDOWN=0, COUNTDOWN2=0;
.................... int1 update_time_flag = 0; 
.................... int1 blink_state = 0;       
.................... unsigned int8 scan_idx = 0; 
.................... 
.................... // BIEN RTC
.................... int1 che_do_tu_dong = 1; 
.................... unsigned int8 rtc_sec, rtc_min, rtc_hour;
.................... 
.................... unsigned int8 bcd_to_decimal(unsigned int8 bcd) {
....................    return ((bcd >> 4) * 10) + (bcd & 0x0F);
*
0252:  SWAPF  3F,W
0253:  MOVWF  77
0254:  MOVLW  0F
0255:  ANDWF  77,F
0256:  MOVF   77,W
0257:  MOVWF  41
0258:  MOVF   41,W
0259:  MOVWF  42
025A:  MOVLW  0A
025B:  MOVWF  43
*
0280:  MOVF   78,W
0281:  MOVWF  40
0282:  MOVF   3F,W
0283:  ANDLW  0F
0284:  ADDWF  78,W
0285:  MOVWF  78
0286:  RETURN
.................... }
.................... 
.................... // DOC RTC 
.................... void DOC_THOIGIAN() {
....................    // Reset bus I2C ao tranh treo
....................    output_float(PIN_C3); output_float(PIN_C4); 
0287:  BSF    27.3
0288:  MOVF   27,W
0289:  BSF    03.5
028A:  MOVWF  07
028B:  BCF    03.5
028C:  BSF    27.4
028D:  MOVF   27,W
028E:  BSF    03.5
028F:  MOVWF  07
....................    
....................    i2c_start();
0290:  BSF    11.0
0291:  BTFSC  11.0
0292:  GOTO   291
....................    i2c_write(0xD0);
0293:  MOVLW  D0
0294:  BCF    03.5
0295:  MOVWF  3E
0296:  CALL   232
....................    i2c_write(0x00);
0297:  CLRF   3E
0298:  CALL   232
....................    i2c_start();
0299:  BSF    03.5
029A:  BSF    11.1
029B:  BTFSC  11.1
029C:  GOTO   29B
....................    i2c_write(0xD1);
029D:  MOVLW  D1
029E:  BCF    03.5
029F:  MOVWF  3E
02A0:  CALL   232
....................    rtc_sec = bcd_to_decimal(i2c_read(1));
02A1:  MOVLW  01
02A2:  MOVWF  77
02A3:  CALL   242
02A4:  MOVF   78,W
02A5:  MOVWF  3E
02A6:  MOVWF  3F
02A7:  CALL   252
02A8:  MOVF   78,W
02A9:  MOVWF  3B
....................    rtc_min = bcd_to_decimal(i2c_read(1));
02AA:  MOVLW  01
02AB:  MOVWF  77
02AC:  CALL   242
02AD:  MOVF   78,W
02AE:  MOVWF  3E
02AF:  MOVWF  3F
02B0:  CALL   252
02B1:  MOVF   78,W
02B2:  MOVWF  3C
....................    rtc_hour = bcd_to_decimal(i2c_read(0));
02B3:  CLRF   77
02B4:  CALL   242
02B5:  MOVF   78,W
02B6:  MOVWF  3E
02B7:  MOVWF  3F
02B8:  CALL   252
02B9:  MOVF   78,W
02BA:  MOVWF  3D
....................    i2c_stop();
02BB:  BSF    03.5
02BC:  BSF    11.2
02BD:  BTFSC  11.2
02BE:  GOTO   2BD
02BF:  BCF    03.5
02C0:  BCF    0A.3
02C1:  BCF    0A.4
02C2:  GOTO   33D (RETURN)
.................... }
.................... 
.................... // CAP NHAT TRANG THAI DEN GIAO THONG
.................... VOID CAPNHAT_DEN(){ 
....................    output_low(PIN_E0); output_low(PIN_E1); output_low(PIN_E2);
*
0156:  BSF    03.5
0157:  BCF    09.0
0158:  BCF    03.5
0159:  BCF    09.0
015A:  BSF    03.5
015B:  BCF    09.1
015C:  BCF    03.5
015D:  BCF    09.1
015E:  BSF    03.5
015F:  BCF    09.2
0160:  BCF    03.5
0161:  BCF    09.2
....................    output_low(PIN_B0); output_low(PIN_B1); output_low(PIN_B2);
0162:  BSF    03.5
0163:  BCF    06.0
0164:  BCF    03.5
0165:  BCF    06.0
0166:  BSF    03.5
0167:  BCF    06.1
0168:  BCF    03.5
0169:  BCF    06.1
016A:  BSF    03.5
016B:  BCF    06.2
016C:  BCF    03.5
016D:  BCF    06.2
.................... 
....................    if(mode == 2) { // Che do dem vang
016E:  MOVF   36,W
016F:  SUBLW  02
0170:  BTFSS  03.2
0171:  GOTO   17D
....................       if(blink_state) { output_high(PIN_E1); output_high(PIN_B1); }
0172:  BTFSS  39.1
0173:  GOTO   17C
0174:  BSF    03.5
0175:  BCF    09.1
0176:  BCF    03.5
0177:  BSF    09.1
0178:  BSF    03.5
0179:  BCF    06.1
017A:  BCF    03.5
017B:  BSF    06.1
....................       return;
017C:  GOTO   1A6
....................    }
.................... 
....................    // Cum 1 (E0-E2)
....................    if(I1 == 0) output_high(PIN_E0);       
017D:  MOVF   32,F
017E:  BTFSS  03.2
017F:  GOTO   185
0180:  BSF    03.5
0181:  BCF    09.0
0182:  BCF    03.5
0183:  BSF    09.0
0184:  GOTO   190
....................    else if(I1 == 1) output_high(PIN_E1); 
0185:  DECFSZ 32,W
0186:  GOTO   18C
0187:  BSF    03.5
0188:  BCF    09.1
0189:  BCF    03.5
018A:  BSF    09.1
018B:  GOTO   190
....................    else output_high(PIN_E2);              
018C:  BSF    03.5
018D:  BCF    09.2
018E:  BCF    03.5
018F:  BSF    09.2
.................... 
....................    // Cum 2 (B0-B2)
....................    if(I2 == 3) output_high(PIN_B0);       
0190:  MOVF   33,W
0191:  SUBLW  03
0192:  BTFSS  03.2
0193:  GOTO   199
0194:  BSF    03.5
0195:  BCF    06.0
0196:  BCF    03.5
0197:  BSF    06.0
0198:  GOTO   1A6
....................    else if(I2 == 4) output_high(PIN_B1); 
0199:  MOVF   33,W
019A:  SUBLW  04
019B:  BTFSS  03.2
019C:  GOTO   1A2
019D:  BSF    03.5
019E:  BCF    06.1
019F:  BCF    03.5
01A0:  BSF    06.1
01A1:  GOTO   1A6
....................    else output_high(PIN_B2);              
01A2:  BSF    03.5
01A3:  BCF    06.2
01A4:  BCF    03.5
01A5:  BSF    06.2
.................... }
.................... 
.................... // ================= NGAT TIMER 1 =================
.................... #INT_TIMER1
.................... VOID ISR(){
....................    set_timer1(64000); 
*
0046:  CLRF   0E
0047:  MOVLW  FA
0048:  MOVWF  0F
0049:  CLRF   0E
004A:  NOP
....................    
....................    // --- QUET LED 7 DOAN ---
....................    output_low(PIN_A0); output_low(PIN_A1); output_low(PIN_A2); output_low(PIN_A3);
004B:  BSF    03.5
004C:  BCF    05.0
004D:  BCF    03.5
004E:  BCF    05.0
004F:  BSF    03.5
0050:  BCF    05.1
0051:  BCF    03.5
0052:  BCF    05.1
0053:  BSF    03.5
0054:  BCF    05.2
0055:  BCF    03.5
0056:  BCF    05.2
0057:  BSF    03.5
0058:  BCF    05.3
0059:  BCF    03.5
005A:  BCF    05.3
....................    
....................    if(mode != 2) { 
005B:  MOVF   36,W
005C:  SUBLW  02
005D:  BTFSC  03.2
005E:  GOTO   0B8
....................        switch(scan_idx) {
005F:  MOVF   3A,W
0060:  ADDLW  FC
0061:  BTFSC  03.0
0062:  GOTO   0B8
0063:  ADDLW  04
0064:  GOTO   1AA
....................            case 0: output_d(code[COUNTDOWN/10]); output_high(PIN_A0); break;
0065:  MOVF   37,W
0066:  MOVWF  44
0067:  MOVLW  0A
0068:  MOVWF  45
0069:  CALL   031
006A:  MOVLW  28
006B:  ADDWF  78,W
006C:  MOVWF  04
006D:  BCF    03.7
006E:  MOVF   00,W
006F:  MOVWF  44
0070:  BSF    03.5
0071:  CLRF   08
0072:  BCF    03.5
0073:  MOVF   44,W
0074:  MOVWF  08
0075:  BSF    03.5
0076:  BCF    05.0
0077:  BCF    03.5
0078:  BSF    05.0
0079:  GOTO   0B8
....................            case 1: output_d(code[COUNTDOWN%10]); output_high(PIN_A1); break;
007A:  MOVF   37,W
007B:  MOVWF  44
007C:  MOVLW  0A
007D:  MOVWF  45
007E:  CALL   031
007F:  MOVLW  28
0080:  ADDWF  77,W
0081:  MOVWF  04
0082:  BCF    03.7
0083:  MOVF   00,W
0084:  MOVWF  44
0085:  BSF    03.5
0086:  CLRF   08
0087:  BCF    03.5
0088:  MOVF   44,W
0089:  MOVWF  08
008A:  BSF    03.5
008B:  BCF    05.1
008C:  BCF    03.5
008D:  BSF    05.1
008E:  GOTO   0B8
....................            case 2: output_d(code[COUNTDOWN2/10]); output_high(PIN_A2); break;
008F:  MOVF   38,W
0090:  MOVWF  44
0091:  MOVLW  0A
0092:  MOVWF  45
0093:  CALL   031
0094:  MOVLW  28
0095:  ADDWF  78,W
0096:  MOVWF  04
0097:  BCF    03.7
0098:  MOVF   00,W
0099:  MOVWF  44
009A:  BSF    03.5
009B:  CLRF   08
009C:  BCF    03.5
009D:  MOVF   44,W
009E:  MOVWF  08
009F:  BSF    03.5
00A0:  BCF    05.2
00A1:  BCF    03.5
00A2:  BSF    05.2
00A3:  GOTO   0B8
....................            case 3: output_d(code[COUNTDOWN2%10]); output_high(PIN_A3); break;
00A4:  MOVF   38,W
00A5:  MOVWF  44
00A6:  MOVLW  0A
00A7:  MOVWF  45
00A8:  CALL   031
00A9:  MOVLW  28
00AA:  ADDWF  77,W
00AB:  MOVWF  04
00AC:  BCF    03.7
00AD:  MOVF   00,W
00AE:  MOVWF  44
00AF:  BSF    03.5
00B0:  CLRF   08
00B1:  BCF    03.5
00B2:  MOVF   44,W
00B3:  MOVWF  08
00B4:  BSF    03.5
00B5:  BCF    05.3
00B6:  BCF    03.5
00B7:  BSF    05.3
....................        }
....................    }
....................    scan_idx++;
00B8:  INCF   3A,F
....................    if(scan_idx > 3) scan_idx = 0;
00B9:  MOVF   3A,W
00BA:  SUBLW  03
00BB:  BTFSS  03.0
00BC:  CLRF   3A
.................... 
....................    // --- DEM THOI GIAN ---
....................    COUNT_TICK++; 
00BD:  INCF   34,F
00BE:  BTFSC  03.2
00BF:  INCF   35,F
....................    
....................    if(COUNT_TICK % 200 == 0) blink_state = !blink_state; // Chop tat vang nhanh
00C0:  MOVF   35,W
00C1:  MOVWF  45
00C2:  MOVF   34,W
00C3:  MOVWF  44
00C4:  CLRF   47
00C5:  MOVLW  C8
00C6:  MOVWF  46
*
00EB:  MOVF   77,W
00EC:  MOVWF  44
00ED:  MOVF   7A,W
00EE:  MOVWF  45
00EF:  MOVF   44,F
00F0:  BTFSS  03.2
00F1:  GOTO   0F7
00F2:  MOVF   45,F
00F3:  BTFSS  03.2
00F4:  GOTO   0F7
00F5:  MOVLW  02
00F6:  XORWF  39,F
.................... 
....................    // 1 GIAY
....................    if(COUNT_TICK >= 400){
00F7:  MOVF   35,W
00F8:  SUBLW  00
00F9:  BTFSC  03.0
00FA:  GOTO   156
00FB:  XORLW  FF
00FC:  BTFSS  03.2
00FD:  GOTO   102
00FE:  MOVF   34,W
00FF:  SUBLW  8F
0100:  BTFSC  03.0
0101:  GOTO   156
....................      COUNT_TICK=0; 
0102:  CLRF   35
0103:  CLRF   34
....................      update_time_flag = 1; 
0104:  BSF    39.0
....................      
....................      if(mode != 2){ 
0105:  MOVF   36,W
0106:  SUBLW  02
0107:  BTFSC  03.2
0108:  GOTO   156
....................          if(COUNTDOWN > 0) COUNTDOWN--;  
0109:  MOVF   37,F
010A:  BTFSS  03.2
010B:  DECF   37,F
....................          if(COUNTDOWN2 > 0) COUNTDOWN2--;    
010C:  MOVF   38,F
010D:  BTFSS  03.2
010E:  DECF   38,F
....................          
....................          if(COUNTDOWN == 0){
010F:  MOVF   37,F
0110:  BTFSS  03.2
0111:  GOTO   130
....................             I1++; if(I1 > 2) I1 = 0;
0112:  INCF   32,F
0113:  MOVF   32,W
0114:  SUBLW  02
0115:  BTFSS  03.0
0116:  CLRF   32
....................             if(I1==0) COUNTDOWN = (mode==1)? GREEN2 : GREEN;
0117:  MOVF   32,F
0118:  BTFSS  03.2
0119:  GOTO   121
011A:  DECFSZ 36,W
011B:  GOTO   11E
011C:  MOVLW  39
011D:  GOTO   11F
011E:  MOVLW  14
011F:  MOVWF  37
0120:  GOTO   130
....................             else if(I1==1) COUNTDOWN = (mode==1)? YELLOW2 : YELLOW;
0121:  DECFSZ 32,W
0122:  GOTO   12A
0123:  DECFSZ 36,W
0124:  GOTO   127
0125:  MOVLW  03
0126:  GOTO   128
0127:  MOVLW  03
0128:  MOVWF  37
0129:  GOTO   130
....................             else COUNTDOWN = (mode==1)? RED2 : RED;
012A:  DECFSZ 36,W
012B:  GOTO   12E
012C:  MOVLW  3C
012D:  GOTO   12F
012E:  MOVLW  17
012F:  MOVWF  37
....................          }
....................          
....................          if(COUNTDOWN2 == 0){
0130:  MOVF   38,F
0131:  BTFSS  03.2
0132:  GOTO   156
....................             I2++; if(I2 > 5) I2 = 3;
0133:  INCF   33,F
0134:  MOVF   33,W
0135:  SUBLW  05
0136:  BTFSC  03.0
0137:  GOTO   13A
0138:  MOVLW  03
0139:  MOVWF  33
....................             if(I2==3) COUNTDOWN2 = (mode==1)? GREEN2 : GREEN;
013A:  MOVF   33,W
013B:  SUBLW  03
013C:  BTFSS  03.2
013D:  GOTO   145
013E:  DECFSZ 36,W
013F:  GOTO   142
0140:  MOVLW  39
0141:  GOTO   143
0142:  MOVLW  14
0143:  MOVWF  38
0144:  GOTO   156
....................             else if(I2==4) COUNTDOWN2 = (mode==1)? YELLOW2 : YELLOW;
0145:  MOVF   33,W
0146:  SUBLW  04
0147:  BTFSS  03.2
0148:  GOTO   150
0149:  DECFSZ 36,W
014A:  GOTO   14D
014B:  MOVLW  03
014C:  GOTO   14E
014D:  MOVLW  03
014E:  MOVWF  38
014F:  GOTO   156
....................             else COUNTDOWN2 = (mode==1)? RED2 : RED;
0150:  DECFSZ 36,W
0151:  GOTO   154
0152:  MOVLW  3C
0153:  GOTO   155
0154:  MOVLW  17
0155:  MOVWF  38
....................          }
....................      }
....................    }
....................    CAPNHAT_DEN();
*
01A6:  BCF    0C.0
01A7:  BCF    0A.3
01A8:  BCF    0A.4
01A9:  GOTO   01D
.................... }
.................... 
.................... // --- HAM KIEM TRA NUT BAM (MOI) ---
.................... // Su dung Polling thay vi Interrupt de on dinh hon
.................... void KIEMTRA_NUTBAM() {
....................     // 1. Nut Chuyen Che Do (B7)
....................     if(!input(PIN_B7)) {
*
01C6:  BSF    03.5
01C7:  BSF    06.7
01C8:  BCF    03.5
01C9:  BTFSC  06.7
01CA:  GOTO   1E4
....................         delay_ms(20); // Chong rung
01CB:  MOVLW  14
01CC:  MOVWF  3E
01CD:  CALL   1B2
....................         if(!input(PIN_B7)) {
01CE:  BSF    03.5
01CF:  BSF    06.7
01D0:  BCF    03.5
01D1:  BTFSC  06.7
01D2:  GOTO   1E4
....................             che_do_tu_dong = !che_do_tu_dong; // Dao trang thai
01D3:  MOVLW  04
01D4:  XORWF  39,F
....................             
....................             // Neu chuyen sang thu cong thi reset ve mac dinh
....................             if(!che_do_tu_dong) { 
01D5:  BTFSC  39.2
01D6:  GOTO   1DF
....................                 mode=0; I1=0; I2=5; COUNTDOWN=GREEN; COUNTDOWN2=RED; 
01D7:  CLRF   36
01D8:  CLRF   32
01D9:  MOVLW  05
01DA:  MOVWF  33
01DB:  MOVLW  14
01DC:  MOVWF  37
01DD:  MOVLW  17
01DE:  MOVWF  38
....................             }
....................             // Cho nha phim de khong bi nhay lien tuc
....................             while(!input(PIN_B7)); 
01DF:  BSF    03.5
01E0:  BSF    06.7
01E1:  BCF    03.5
01E2:  BTFSS  06.7
01E3:  GOTO   1DF
....................         }
....................     }
.................... 
....................     // Cac nut con lai chi co tac dung khi che do TU DONG = 0 (Tat)
....................     if(che_do_tu_dong == 0) {
01E4:  BTFSC  39.2
01E5:  GOTO   22F
....................         // Nut Che do binh thuong (B4)
....................         if(!input(PIN_B4)) {
01E6:  BSF    03.5
01E7:  BSF    06.4
01E8:  BCF    03.5
01E9:  BTFSC  06.4
01EA:  GOTO   200
....................             delay_ms(20);
01EB:  MOVLW  14
01EC:  MOVWF  3E
01ED:  CALL   1B2
....................             if(!input(PIN_B4)) {
01EE:  BSF    03.5
01EF:  BSF    06.4
01F0:  BCF    03.5
01F1:  BTFSC  06.4
01F2:  GOTO   200
....................                 mode=0; I1=0; I2=5; COUNTDOWN=GREEN; COUNTDOWN2=RED;
01F3:  CLRF   36
01F4:  CLRF   32
01F5:  MOVLW  05
01F6:  MOVWF  33
01F7:  MOVLW  14
01F8:  MOVWF  37
01F9:  MOVLW  17
01FA:  MOVWF  38
....................                 while(!input(PIN_B4));
01FB:  BSF    03.5
01FC:  BSF    06.4
01FD:  BCF    03.5
01FE:  BTFSS  06.4
01FF:  GOTO   1FB
....................             }
....................         }
....................         // Nut Che do cao diem (B5)
....................         if(!input(PIN_B5)) {
0200:  BSF    03.5
0201:  BSF    06.5
0202:  BCF    03.5
0203:  BTFSC  06.5
0204:  GOTO   21B
....................             delay_ms(20);
0205:  MOVLW  14
0206:  MOVWF  3E
0207:  CALL   1B2
....................             if(!input(PIN_B5)) {
0208:  BSF    03.5
0209:  BSF    06.5
020A:  BCF    03.5
020B:  BTFSC  06.5
020C:  GOTO   21B
....................                 mode=1; I1=0; I2=5; COUNTDOWN=GREEN2; COUNTDOWN2=RED2;
020D:  MOVLW  01
020E:  MOVWF  36
020F:  CLRF   32
0210:  MOVLW  05
0211:  MOVWF  33
0212:  MOVLW  39
0213:  MOVWF  37
0214:  MOVLW  3C
0215:  MOVWF  38
....................                 while(!input(PIN_B5));
0216:  BSF    03.5
0217:  BSF    06.5
0218:  BCF    03.5
0219:  BTFSS  06.5
021A:  GOTO   216
....................             }
....................         }
....................         // Nut Che do dem (B6)
....................         if(!input(PIN_B6)) {
021B:  BSF    03.5
021C:  BSF    06.6
021D:  BCF    03.5
021E:  BTFSC  06.6
021F:  GOTO   22F
....................             delay_ms(20);
0220:  MOVLW  14
0221:  MOVWF  3E
0222:  CALL   1B2
....................             if(!input(PIN_B6)) {
0223:  BSF    03.5
0224:  BSF    06.6
0225:  BCF    03.5
0226:  BTFSC  06.6
0227:  GOTO   22F
....................                 mode=2; 
0228:  MOVLW  02
0229:  MOVWF  36
....................                 while(!input(PIN_B6));
022A:  BSF    03.5
022B:  BSF    06.6
022C:  BCF    03.5
022D:  BTFSS  06.6
022E:  GOTO   22A
....................             }
....................         }
....................     }
022F:  BCF    0A.3
0230:  BCF    0A.4
0231:  GOTO   337 (RETURN)
.................... }
.................... 
.................... void main(){
*
02C3:  MOVF   03,W
02C4:  ANDLW  1F
02C5:  MOVWF  03
02C6:  MOVLW  FF
02C7:  MOVWF  27
02C8:  BSF    27.3
02C9:  MOVF   27,W
02CA:  BSF    03.5
02CB:  MOVWF  07
02CC:  BCF    03.5
02CD:  BSF    27.4
02CE:  MOVF   27,W
02CF:  BSF    03.5
02D0:  MOVWF  07
02D1:  MOVLW  0C
02D2:  MOVWF  13
02D3:  MOVLW  28
02D4:  BCF    03.5
02D5:  MOVWF  14
02D6:  BSF    03.5
02D7:  BCF    14.7
02D8:  BCF    14.6
02D9:  BCF    03.5
02DA:  CLRF   32
02DB:  CLRF   33
02DC:  CLRF   35
02DD:  CLRF   34
02DE:  CLRF   36
02DF:  CLRF   37
02E0:  CLRF   38
02E1:  BCF    39.0
02E2:  BCF    39.1
02E3:  CLRF   3A
02E4:  BSF    39.2
02E5:  BSF    03.5
02E6:  BSF    1F.0
02E7:  BSF    1F.1
02E8:  BSF    1F.2
02E9:  BCF    1F.3
02EA:  MOVLW  07
02EB:  MOVWF  1C
02EC:  BCF    03.7
....................    setup_adc_ports(NO_ANALOGS); 
*
0302:  BSF    03.5
0303:  BSF    1F.0
0304:  BSF    1F.1
0305:  BSF    1F.2
0306:  BCF    1F.3
....................    
....................    set_tris_a(0x00);
0307:  MOVLW  00
0308:  MOVWF  05
....................    set_tris_b(0xF0); // B4-B7 la Input
0309:  MOVLW  F0
030A:  MOVWF  06
....................    set_tris_d(0x00);
030B:  MOVLW  00
030C:  MOVWF  08
....................    set_tris_e(0x00);
030D:  BCF    09.0
030E:  BCF    09.1
030F:  BCF    09.2
....................    
....................    // Keo tro noi len cho Port B (quan trong vi nut bam noi xuong GND)
....................    port_b_pullups(TRUE); 
0310:  BCF    01.7
....................    
....................    OUTPUT_A(0); OUTPUT_D(0); OUTPUT_E(0); OUTPUT_B(0);
0311:  CLRF   05
0312:  BCF    03.5
0313:  CLRF   05
0314:  BSF    03.5
0315:  CLRF   08
0316:  BCF    03.5
0317:  CLRF   08
0318:  BSF    03.5
0319:  BCF    09.0
031A:  BCF    09.1
031B:  BCF    09.2
031C:  BCF    03.5
031D:  CLRF   09
031E:  BSF    03.5
031F:  CLRF   06
0320:  BCF    03.5
0321:  CLRF   06
.................... 
....................    mode = 0; I1 = 0; I2 = 5;
0322:  CLRF   36
0323:  CLRF   32
0324:  MOVLW  05
0325:  MOVWF  33
....................    COUNTDOWN = GREEN; COUNTDOWN2 = RED;
0326:  MOVLW  14
0327:  MOVWF  37
0328:  MOVLW  17
0329:  MOVWF  38
.................... 
....................    setup_timer_1(T1_INTERNAL | T1_DIV_BY_8); 
032A:  MOVLW  B5
032B:  MOVWF  10
....................    set_timer1(64000); 
032C:  CLRF   0E
032D:  MOVLW  FA
032E:  MOVWF  0F
032F:  CLRF   0E
0330:  NOP
....................    
....................    enable_interrupts(INT_TIMER1);
0331:  BSF    03.5
0332:  BSF    0C.0
....................    // enable_interrupts(INT_RB); // --- BO DONG NAY ---
....................    enable_interrupts(GLOBAL);
0333:  MOVLW  C0
0334:  BCF    03.5
0335:  IORWF  0B,F
....................    
....................    while(true){
....................       // Goi ham quet nut bam lien tuc
....................       KIEMTRA_NUTBAM();
0336:  GOTO   1C6
.................... 
....................       if(update_time_flag){
0337:  BTFSS  39.0
0338:  GOTO   374
....................          update_time_flag = 0; 
0339:  BCF    39.0
....................          
....................          // Chi doc RTC va tu dong chuyen mode khi bien nay = 1
....................          if(che_do_tu_dong){
033A:  BTFSS  39.2
033B:  GOTO   374
....................              DOC_THOIGIAN(); 
033C:  GOTO   287
....................              
....................              if ((rtc_hour >= 6 && rtc_hour < 8) || (rtc_hour >= 16 && rtc_hour < 18)) {
033D:  MOVF   3D,W
033E:  SUBLW  05
033F:  BTFSC  03.0
0340:  GOTO   345
0341:  MOVF   3D,W
0342:  SUBLW  07
0343:  BTFSC  03.0
0344:  GOTO   34D
0345:  MOVF   3D,W
0346:  SUBLW  0F
0347:  BTFSC  03.0
0348:  GOTO   35A
0349:  MOVF   3D,W
034A:  SUBLW  11
034B:  BTFSS  03.0
034C:  GOTO   35A
....................                 if(mode != 1) { mode = 1; I1=0; I2=5; COUNTDOWN=GREEN2; COUNTDOWN2=RED2; }
034D:  DECFSZ 36,W
034E:  GOTO   350
034F:  GOTO   359
0350:  MOVLW  01
0351:  MOVWF  36
0352:  CLRF   32
0353:  MOVLW  05
0354:  MOVWF  33
0355:  MOVLW  39
0356:  MOVWF  37
0357:  MOVLW  3C
0358:  MOVWF  38
....................              }
0359:  GOTO   374
....................              else if (rtc_hour >= 22 || rtc_hour < 5) {
035A:  MOVF   3D,W
035B:  SUBLW  15
035C:  BTFSS  03.0
035D:  GOTO   362
035E:  MOVF   3D,W
035F:  SUBLW  04
0360:  BTFSS  03.0
0361:  GOTO   369
....................                 if(mode != 2) { mode = 2; }
0362:  MOVF   36,W
0363:  SUBLW  02
0364:  BTFSC  03.2
0365:  GOTO   368
0366:  MOVLW  02
0367:  MOVWF  36
....................              }
0368:  GOTO   374
....................              else {
....................                 if(mode != 0) { mode = 0; I1=0; I2=5; COUNTDOWN=GREEN; COUNTDOWN2=RED; }
0369:  MOVF   36,F
036A:  BTFSC  03.2
036B:  GOTO   374
036C:  CLRF   36
036D:  CLRF   32
036E:  MOVLW  05
036F:  MOVWF  33
0370:  MOVLW  14
0371:  MOVWF  37
0372:  MOVLW  17
0373:  MOVWF  38
....................              }
....................          }
....................       }
0374:  GOTO   336
....................    }
.................... }
0375:  SLEEP

Configuration Fuses:
   Word  1: 3F72   HS NOWDT PUT BROWNOUT NOLVP NOCPD NOWRT NODEBUG NOPROTECT
